target datalayout = "e-m:e-p270:32:32-p271:32:32-p272:64:64-i64:64-i128:128-f80:128-n8:16:32:64-S128"
target triple = "x86_64-pc-linux-gnu"

%struct.apm_partition_info = type { i16, i16, i32, i32, i32, [32 x i8], [32 x i8], i32, i32, i32, i32, i32, i32, i32, i32, i32, i32, [16 x i8] }
%struct.cli_ctx_tag = type { ptr, ptr, ptr, ptr, ptr, ptr, ptr, i64, ptr, i32, i32, ptr, i32, i32, ptr, [16 x i8], ptr, ptr, ptr, ptr, ptr, ptr, %struct.timeval, i8, i8 }
%struct.timeval = type { i64, i64 }
%struct.cl_fmap = type { ptr, ptr, ptr, i64, i64, i64, i64, i8, i8, i8, i64, i64, i64, i64, ptr, ptr, ptr, ptr, ptr, ptr, ptr, i8, [16 x i8], i8, [20 x i8], i8, [32 x i8], ptr, ptr }
%struct.cl_engine = type { i32, i32, i32, [2 x i32], i32, i32, i32, ptr, i32, i64, i32, i32, i64, i64, i32, i32, i32, i32, ptr, ptr, ptr, ptr, ptr, ptr, ptr, ptr, ptr, ptr, ptr, ptr, ptr, ptr, ptr, ptr, ptr, ptr, ptr, i64, ptr, %struct.crtmgr, ptr, ptr, ptr, ptr, ptr, ptr, ptr, ptr, ptr, ptr, ptr, ptr, ptr, ptr, ptr, ptr, ptr, %struct.cli_all_bc, [7 x ptr], [7 x i32], i32, i32, i32, i32, i64, i64, i64, i64, i64, ptr, ptr, ptr, ptr, ptr, ptr, ptr, ptr, ptr, i32, i32, i32, i64, i64, i64, ptr }
%struct.crtmgr = type { ptr, i32 }
%struct.cli_all_bc = type { ptr, i32, ptr, %struct.cli_environment, i32 }
%struct.cli_environment = type { i32, i32, i32, i32, i32, i32, i32, [65 x i8], [65 x i8], [65 x i8], [65 x i8], [65 x i8], [65 x i8], [65 x i8], i8, i8, i8, i8, i8, i8, i8, i8, i8 }
%struct.partition_intersection_list = type { ptr, i64 }

@.str.4 = private unnamed_addr constant [44 x i8] c"cli_scanapm: Invalid Apple partition entry\0A\00", align 1
@.str.19 = private unnamed_addr constant [13 x i8] c"Apple_Driver\00", align 1
@.str.20 = private unnamed_addr constant [15 x i8] c"Apple_Driver43\00", align 1
@.str.21 = private unnamed_addr constant [18 x i8] c"Apple_Driver43_CD\00", align 1
@.str.22 = private unnamed_addr constant [17 x i8] c"Apple_Driver_ATA\00", align 1
@.str.23 = private unnamed_addr constant [19 x i8] c"Apple_Driver_ATAPI\00", align 1
@.str.24 = private unnamed_addr constant [14 x i8] c"Apple_Patches\00", align 1
@.str.29 = private unnamed_addr constant [61 x i8] c"cli_scanapm: detected intersection with partitions [%u, %u]\0A\00", align 1
@.str.30 = private unnamed_addr constant [36 x i8] c"Heuristics.APMPartitionIntersection\00", align 1

; Function Attrs: inlinehint nounwind uwtable
define internal ptr @fmap_need_off_once(ptr noundef %0, i64 noundef %1, i64 noundef %2) #3 {
  %4 = alloca ptr, align 8
  %5 = alloca i64, align 8
  %6 = alloca i64, align 8
  store ptr %0, ptr %4, align 8, !tbaa !69
  store i64 %1, ptr %5, align 8, !tbaa !12
  store i64 %2, ptr %6, align 8, !tbaa !12
  %7 = load ptr, ptr %4, align 8, !tbaa !69
  %8 = getelementptr inbounds nuw %struct.cl_fmap, ptr %7, i32 0, i32 15
  %9 = load ptr, ptr %8, align 8, !tbaa !73
  %10 = load ptr, ptr %4, align 8, !tbaa !69
  %11 = load i64, ptr %5, align 8, !tbaa !12
  %12 = load i64, ptr %6, align 8, !tbaa !12
  %13 = call ptr %9(ptr noundef %10, i64 noundef %11, i64 noundef %12, i32 noundef 0)
  ret ptr %13
}

; Function Attrs: inlinehint nounwind uwtable
define internal i64 @fmap_readn(ptr noundef %0, ptr noundef %1, i64 noundef %2, i64 noundef %3) #3 {
  %5 = alloca i64, align 8
  %6 = alloca ptr, align 8
  %7 = alloca ptr, align 8
  %8 = alloca i64, align 8
  %9 = alloca i64, align 8
  %10 = alloca ptr, align 8
  %11 = alloca i32, align 4
  store ptr %0, ptr %6, align 8, !tbaa !69
  store ptr %1, ptr %7, align 8, !tbaa !70
  store i64 %2, ptr %8, align 8, !tbaa !12
  store i64 %3, ptr %9, align 8, !tbaa !12
  call void @llvm.lifetime.start.p0(i64 8, ptr %10) #6
  %12 = load i64, ptr %8, align 8, !tbaa !12
  %13 = load ptr, ptr %6, align 8, !tbaa !69
  %14 = getelementptr inbounds nuw %struct.cl_fmap, ptr %13, i32 0, i32 13
  %15 = load i64, ptr %14, align 8, !tbaa !33
  %16 = icmp eq i64 %12, %15
  br i1 %16, label %20, label %17

17:                                               ; preds = %4
  %18 = load i64, ptr %9, align 8, !tbaa !12
  %19 = icmp ne i64 %18, 0
  br i1 %19, label %21, label %20

20:                                               ; preds = %17, %4
  store i64 0, ptr %5, align 8
  store i32 1, ptr %11, align 4
  br label %61

21:                                               ; preds = %17
  %22 = load i64, ptr %8, align 8, !tbaa !12
  %23 = load ptr, ptr %6, align 8, !tbaa !69
  %24 = getelementptr inbounds nuw %struct.cl_fmap, ptr %23, i32 0, i32 13
  %25 = load i64, ptr %24, align 8, !tbaa !33
  %26 = icmp ugt i64 %22, %25
  br i1 %26, label %27, label %28

27:                                               ; preds = %21
  store i64 -1, ptr %5, align 8
  store i32 1, ptr %11, align 4
  br label %61

28:                                               ; preds = %21
  %29 = load i64, ptr %9, align 8, !tbaa !12
  %30 = load ptr, ptr %6, align 8, !tbaa !69
  %31 = getelementptr inbounds nuw %struct.cl_fmap, ptr %30, i32 0, i32 13
  %32 = load i64, ptr %31, align 8, !tbaa !33
  %33 = load i64, ptr %8, align 8, !tbaa !12
  %34 = sub i64 %32, %33
  %35 = icmp ugt i64 %29, %34
  br i1 %35, label %36, label %42

36:                                               ; preds = %28
  %37 = load ptr, ptr %6, align 8, !tbaa !69
  %38 = getelementptr inbounds nuw %struct.cl_fmap, ptr %37, i32 0, i32 13
  %39 = load i64, ptr %38, align 8, !tbaa !33
  %40 = load i64, ptr %8, align 8, !tbaa !12
  %41 = sub i64 %39, %40
  store i64 %41, ptr %9, align 8, !tbaa !12
  br label %42

42:                                               ; preds = %36, %28
  %43 = load ptr, ptr %6, align 8, !tbaa !69
  %44 = load i64, ptr %8, align 8, !tbaa !12
  %45 = load i64, ptr %9, align 8, !tbaa !12
  %46 = call ptr @fmap_need_off_once(ptr noundef %43, i64 noundef %44, i64 noundef %45)
  store ptr %46, ptr %10, align 8, !tbaa !70
  %47 = load ptr, ptr %10, align 8, !tbaa !70
  %48 = icmp ne ptr %47, null
  br i1 %48, label %50, label %49

49:                                               ; preds = %42
  store i64 -1, ptr %5, align 8
  store i32 1, ptr %11, align 4
  br label %61

50:                                               ; preds = %42
  %51 = load ptr, ptr %7, align 8, !tbaa !70
  %52 = load ptr, ptr %10, align 8, !tbaa !70
  %53 = load i64, ptr %9, align 8, !tbaa !12
  call void @llvm.memcpy.p0.p0.i64(ptr align 1 %51, ptr align 1 %52, i64 %53, i1 false)
  %54 = load i64, ptr %9, align 8, !tbaa !12
  %55 = icmp ule i64 %54, 2147483647
  br i1 %55, label %56, label %58

56:                                               ; preds = %50
  %57 = load i64, ptr %9, align 8, !tbaa !12
  br label %59

58:                                               ; preds = %50
  br label %59

59:                                               ; preds = %58, %56
  %60 = phi i64 [ %57, %56 ], [ -1, %58 ]
  store i64 %60, ptr %5, align 8
  store i32 1, ptr %11, align 4
  br label %61

61:                                               ; preds = %59, %49, %27, %20
  call void @llvm.lifetime.end.p0(i64 8, ptr %10) #6
  %62 = load i64, ptr %5, align 8
  ret i64 %62
}

; Function Attrs: nounwind uwtable
define internal i32 @apm_partition_intersection(ptr noundef %0, ptr noundef %1, i64 noundef %2, i1 noundef zeroext %3) #0 {
  %5 = alloca ptr, align 8
  %6 = alloca ptr, align 8
  %7 = alloca i64, align 8
  %8 = alloca i8, align 1
  %9 = alloca i32, align 4
  %10 = alloca i32, align 4
  %11 = alloca %struct.partition_intersection_list, align 8
  %12 = alloca %struct.apm_partition_info, align 1
  %13 = alloca i32, align 4
  %14 = alloca i32, align 4
  %15 = alloca i64, align 8
  %16 = alloca i32, align 4
  store ptr %0, ptr %5, align 8, !tbaa !3
  store ptr %1, ptr %6, align 8, !tbaa !71
  store i64 %2, ptr %7, align 8, !tbaa !12
  %17 = zext i1 %3 to i8
  store i8 %17, ptr %8, align 1, !tbaa !10
  call void @llvm.lifetime.start.p0(i64 4, ptr %9) #6
  store i32 0, ptr %9, align 4, !tbaa !8
  call void @llvm.lifetime.start.p0(i64 4, ptr %10) #6
  call void @llvm.lifetime.start.p0(i64 16, ptr %11) #6
  call void @llvm.lifetime.start.p0(i64 136, ptr %12) #6
  call void @llvm.lifetime.start.p0(i64 4, ptr %13) #6
  call void @llvm.lifetime.start.p0(i64 4, ptr %14) #6
  call void @llvm.lifetime.start.p0(i64 8, ptr %15) #6
  call void @llvm.lifetime.start.p0(i64 4, ptr %16) #6
  store i32 0, ptr %16, align 4, !tbaa !8
  %18 = call i32 @partition_intersection_list_init(ptr noundef %11)
  %19 = load ptr, ptr %6, align 8, !tbaa !71
  %20 = getelementptr inbounds nuw %struct.apm_partition_info, ptr %19, i32 0, i32 2
  %21 = load i32, ptr %20, align 1, !tbaa !37
  %22 = load ptr, ptr %5, align 8, !tbaa !3
  %23 = getelementptr inbounds nuw %struct.cli_ctx_tag, ptr %22, i32 0, i32 6
  %24 = load ptr, ptr %23, align 8, !tbaa !48
  %25 = getelementptr inbounds nuw %struct.cl_engine, ptr %24, i32 0, i32 78
  %26 = load i32, ptr %25, align 8, !tbaa !49
  %27 = icmp ult i32 %21, %26
  br i1 %27, label %28, label %32

28:                                               ; preds = %4
  %29 = load ptr, ptr %6, align 8, !tbaa !71
  %30 = getelementptr inbounds nuw %struct.apm_partition_info, ptr %29, i32 0, i32 2
  %31 = load i32, ptr %30, align 1, !tbaa !37
  store i32 %31, ptr %16, align 4, !tbaa !8
  br label %38

32:                                               ; preds = %4
  %33 = load ptr, ptr %5, align 8, !tbaa !3
  %34 = getelementptr inbounds nuw %struct.cli_ctx_tag, ptr %33, i32 0, i32 6
  %35 = load ptr, ptr %34, align 8, !tbaa !48
  %36 = getelementptr inbounds nuw %struct.cl_engine, ptr %35, i32 0, i32 78
  %37 = load i32, ptr %36, align 8, !tbaa !49
  store i32 %37, ptr %16, align 4, !tbaa !8
  br label %38

38:                                               ; preds = %32, %28
  store i32 1, ptr %13, align 4, !tbaa !8
  br label %39

39:                                               ; preds = %168, %38
  %40 = load i32, ptr %13, align 4, !tbaa !8
  %41 = load i32, ptr %16, align 4, !tbaa !8
  %42 = icmp ule i32 %40, %41
  br i1 %42, label %43, label %171

43:                                               ; preds = %39
  %44 = load i32, ptr %13, align 4, !tbaa !8
  %45 = zext i32 %44 to i64
  %46 = load i64, ptr %7, align 8, !tbaa !12
  %47 = mul i64 %45, %46
  store i64 %47, ptr %15, align 8, !tbaa !12
  %48 = load ptr, ptr %5, align 8, !tbaa !3
  %49 = getelementptr inbounds nuw %struct.cli_ctx_tag, ptr %48, i32 0, i32 14
  %50 = load ptr, ptr %49, align 8, !tbaa !14
  %51 = load i64, ptr %15, align 8, !tbaa !12
  %52 = call i64 @fmap_readn(ptr noundef %50, ptr noundef %12, i64 noundef %51, i64 noundef 136)
  %53 = icmp ne i64 %52, 136
  br i1 %53, label %54, label %56

54:                                               ; preds = %43
  call void (ptr, ...) @cli_dbgmsg(ptr noundef @.str.4)
  %55 = call i32 @partition_intersection_list_free(ptr noundef %11)
  store i32 26, ptr %9, align 4, !tbaa !8
  br label %172

56:                                               ; preds = %43
  %57 = getelementptr inbounds nuw %struct.apm_partition_info, ptr %12, i32 0, i32 3
  %58 = load i32, ptr %57, align 1, !tbaa !38
  %59 = and i32 %58, 255
  %60 = shl i32 %59, 24
  %61 = getelementptr inbounds nuw %struct.apm_partition_info, ptr %12, i32 0, i32 3
  %62 = load i32, ptr %61, align 1, !tbaa !38
  %63 = and i32 %62, 65280
  %64 = shl i32 %63, 8
  %65 = or i32 %60, %64
  %66 = getelementptr inbounds nuw %struct.apm_partition_info, ptr %12, i32 0, i32 3
  %67 = load i32, ptr %66, align 1, !tbaa !38
  %68 = and i32 %67, 16711680
  %69 = lshr i32 %68, 8
  %70 = or i32 %65, %69
  %71 = getelementptr inbounds nuw %struct.apm_partition_info, ptr %12, i32 0, i32 3
  %72 = load i32, ptr %71, align 1, !tbaa !38
  %73 = and i32 %72, -16777216
  %74 = lshr i32 %73, 24
  %75 = or i32 %70, %74
  %76 = getelementptr inbounds nuw %struct.apm_partition_info, ptr %12, i32 0, i32 3
  store i32 %75, ptr %76, align 1, !tbaa !38
  %77 = getelementptr inbounds nuw %struct.apm_partition_info, ptr %12, i32 0, i32 4
  %78 = load i32, ptr %77, align 1, !tbaa !39
  %79 = and i32 %78, 255
  %80 = shl i32 %79, 24
  %81 = getelementptr inbounds nuw %struct.apm_partition_info, ptr %12, i32 0, i32 4
  %82 = load i32, ptr %81, align 1, !tbaa !39
  %83 = and i32 %82, 65280
  %84 = shl i32 %83, 8
  %85 = or i32 %80, %84
  %86 = getelementptr inbounds nuw %struct.apm_partition_info, ptr %12, i32 0, i32 4
  %87 = load i32, ptr %86, align 1, !tbaa !39
  %88 = and i32 %87, 16711680
  %89 = lshr i32 %88, 8
  %90 = or i32 %85, %89
  %91 = getelementptr inbounds nuw %struct.apm_partition_info, ptr %12, i32 0, i32 4
  %92 = load i32, ptr %91, align 1, !tbaa !39
  %93 = and i32 %92, -16777216
  %94 = lshr i32 %93, 24
  %95 = or i32 %90, %94
  %96 = getelementptr inbounds nuw %struct.apm_partition_info, ptr %12, i32 0, i32 4
  store i32 %95, ptr %96, align 1, !tbaa !39
  %97 = load i8, ptr %8, align 1, !tbaa !10, !range !46, !noundef !47
  %98 = trunc i8 %97 to i1
  br i1 %98, label %99, label %139

99:                                               ; preds = %56
  %100 = load i32, ptr %13, align 4, !tbaa !8
  %101 = urem i32 %100, 4
  %102 = icmp eq i32 %101, 0
  br i1 %102, label %103, label %139

103:                                              ; preds = %99
  %104 = getelementptr inbounds nuw %struct.apm_partition_info, ptr %12, i32 0, i32 6
  %105 = getelementptr inbounds [32 x i8], ptr %104, i64 0, i64 0
  %106 = call i32 @strncmp(ptr noundef %105, ptr noundef @.str.19, i64 noundef 32) #7
  %107 = icmp ne i32 %106, 0
  br i1 %107, label %108, label %133

108:                                              ; preds = %103
  %109 = getelementptr inbounds nuw %struct.apm_partition_info, ptr %12, i32 0, i32 6
  %110 = getelementptr inbounds [32 x i8], ptr %109, i64 0, i64 0
  %111 = call i32 @strncmp(ptr noundef %110, ptr noundef @.str.20, i64 noundef 32) #7
  %112 = icmp ne i32 %111, 0
  br i1 %112, label %113, label %133

113:                                              ; preds = %108
  %114 = getelementptr inbounds nuw %struct.apm_partition_info, ptr %12, i32 0, i32 6
  %115 = getelementptr inbounds [32 x i8], ptr %114, i64 0, i64 0
  %116 = call i32 @strncmp(ptr noundef %115, ptr noundef @.str.21, i64 noundef 32) #7
  %117 = icmp ne i32 %116, 0
  br i1 %117, label %118, label %133

118:                                              ; preds = %113
  %119 = getelementptr inbounds nuw %struct.apm_partition_info, ptr %12, i32 0, i32 6
  %120 = getelementptr inbounds [32 x i8], ptr %119, i64 0, i64 0
  %121 = call i32 @strncmp(ptr noundef %120, ptr noundef @.str.22, i64 noundef 32) #7
  %122 = icmp ne i32 %121, 0
  br i1 %122, label %123, label %133

123:                                              ; preds = %118
  %124 = getelementptr inbounds nuw %struct.apm_partition_info, ptr %12, i32 0, i32 6
  %125 = getelementptr inbounds [32 x i8], ptr %124, i64 0, i64 0
  %126 = call i32 @strncmp(ptr noundef %125, ptr noundef @.str.23, i64 noundef 32) #7
  %127 = icmp ne i32 %126, 0
  br i1 %127, label %128, label %133

128:                                              ; preds = %123
  %129 = getelementptr inbounds nuw %struct.apm_partition_info, ptr %12, i32 0, i32 6
  %130 = getelementptr inbounds [32 x i8], ptr %129, i64 0, i64 0
  %131 = call i32 @strncmp(ptr noundef %130, ptr noundef @.str.24, i64 noundef 32) #7
  %132 = icmp ne i32 %131, 0
  br i1 %132, label %138, label %133

133:                                              ; preds = %128, %123, %118, %113, %108, %103
  %134 = getelementptr inbounds nuw %struct.apm_partition_info, ptr %12, i32 0, i32 4
  %135 = load i32, ptr %134, align 1, !tbaa !39
  %136 = mul i32 %135, 4
  %137 = getelementptr inbounds nuw %struct.apm_partition_info, ptr %12, i32 0, i32 4
  store i32 %136, ptr %137, align 1, !tbaa !39
  br label %138

138:                                              ; preds = %133, %128
  br label %139

139:                                              ; preds = %138, %99, %56
  %140 = getelementptr inbounds nuw %struct.apm_partition_info, ptr %12, i32 0, i32 3
  %141 = load i32, ptr %140, align 1, !tbaa !38
  %142 = zext i32 %141 to i64
  %143 = getelementptr inbounds nuw %struct.apm_partition_info, ptr %12, i32 0, i32 4
  %144 = load i32, ptr %143, align 1, !tbaa !39
  %145 = zext i32 %144 to i64
  %146 = call i32 @partition_intersection_list_check(ptr noundef %11, ptr noundef %14, i64 noundef %142, i64 noundef %145)
  store i32 %146, ptr %10, align 4, !tbaa !8
  %147 = load i32, ptr %10, align 4, !tbaa !8
  %148 = icmp ne i32 %147, 0
  br i1 %148, label %149, label %164

149:                                              ; preds = %139
  %150 = load i32, ptr %10, align 4, !tbaa !8
  %151 = icmp eq i32 %150, 1
  br i1 %151, label %152, label %161

152:                                              ; preds = %149
  %153 = load i32, ptr %14, align 4, !tbaa !8
  %154 = load i32, ptr %13, align 4, !tbaa !8
  call void (ptr, ...) @cli_dbgmsg(ptr noundef @.str.29, i32 noundef %153, i32 noundef %154)
  %155 = load ptr, ptr %5, align 8, !tbaa !3
  %156 = call i32 @cli_append_potentially_unwanted(ptr noundef %155, ptr noundef @.str.30)
  store i32 %156, ptr %9, align 4, !tbaa !8
  %157 = load i32, ptr %9, align 4, !tbaa !8
  %158 = icmp ne i32 %157, 0
  br i1 %158, label %159, label %160

159:                                              ; preds = %152
  br label %172

160:                                              ; preds = %152
  br label %163

161:                                              ; preds = %149
  %162 = load i32, ptr %10, align 4, !tbaa !8
  store i32 %162, ptr %9, align 4, !tbaa !8
  br label %172

163:                                              ; preds = %160
  br label %164

164:                                              ; preds = %163, %139
  %165 = load i64, ptr %7, align 8, !tbaa !12
  %166 = load i64, ptr %15, align 8, !tbaa !12
  %167 = add i64 %166, %165
  store i64 %167, ptr %15, align 8, !tbaa !12
  br label %168

168:                                              ; preds = %164
  %169 = load i32, ptr %13, align 4, !tbaa !8
  %170 = add i32 %169, 1
  store i32 %170, ptr %13, align 4, !tbaa !8
  br label %39

171:                                              ; preds = %39
  br label %172

172:                                              ; preds = %171, %161, %159, %54
  %173 = call i32 @partition_intersection_list_free(ptr noundef %11)
  %174 = load i32, ptr %9, align 4, !tbaa !8
  call void @llvm.lifetime.end.p0(i64 4, ptr %16) #6
  call void @llvm.lifetime.end.p0(i64 8, ptr %15) #6
  call void @llvm.lifetime.end.p0(i64 4, ptr %14) #6
  call void @llvm.lifetime.end.p0(i64 4, ptr %13) #6
  call void @llvm.lifetime.end.p0(i64 136, ptr %12) #6
  call void @llvm.lifetime.end.p0(i64 16, ptr %11) #6
  call void @llvm.lifetime.end.p0(i64 4, ptr %10) #6
  call void @llvm.lifetime.end.p0(i64 4, ptr %9) #6
  ret i32 %174
}