; Function Attrs: nounwind uwtable
define internal fastcc i32 @apm_partition_intersection(ptr noundef nonnull %0, ptr noundef nonnull readonly captures(none) %1, i64 noundef range(i64 0, 65536) %2, i1 noundef zeroext %3) unnamed_addr #0 {
  %5 = alloca %struct.partition_intersection_list, align 8
  %6 = alloca %struct.apm_partition_info, align 1
  %7 = alloca i32, align 4
  call void @llvm.lifetime.start.p0(i64 16, ptr nonnull %5) #6
  call void @llvm.lifetime.start.p0(i64 136, ptr nonnull %6) #6
  call void @llvm.lifetime.start.p0(i64 4, ptr nonnull %7) #6
  %8 = call i32 @partition_intersection_list_init(ptr noundef nonnull %5) #6
  %9 = getelementptr inbounds nuw i8, ptr %1, i64 4
  %10 = load i32, ptr %9, align 1, !tbaa !33
  %11 = getelementptr inbounds nuw i8, ptr %0, i64 48
  %12 = load ptr, ptr %11, align 8, !tbaa !42
  %13 = getelementptr inbounds nuw i8, ptr %12, i64 1152
  %14 = load i32, ptr %13, align 8, !tbaa !43
  %. = call i32 @llvm.umin.i32(i32 %10, i32 %14)
  %.not46 = icmp eq i32 %., 0
  br i1 %.not46, label %.loopexit, label %.lr.ph

.lr.ph:                                           ; preds = %4
  %15 = getelementptr inbounds nuw i8, ptr %0, i64 96
  %16 = getelementptr inbounds nuw i8, ptr %6, i64 8
  %17 = getelementptr inbounds nuw i8, ptr %6, i64 12
  %18 = getelementptr inbounds nuw i8, ptr %6, i64 48
  br label %19

19:                                               ; preds = %.lr.ph, %54
  %.02147 = phi i32 [ 1, %.lr.ph ], [ %55, %54 ]
  %20 = zext i32 %.02147 to i64
  %21 = mul nuw nsw i64 %2, %20
  %22 = load ptr, ptr %15, align 8, !tbaa !3
  %23 = getelementptr inbounds nuw i8, ptr %22, i64 88
  %24 = load i64, ptr %23, align 8, !tbaa !23
  %or.cond45.not = icmp ult i64 %21, %24
  br i1 %or.cond45.not, label %25, label %fmap_readn.exit.thread

25:                                               ; preds = %19
  %26 = sub nuw i64 %24, %21
  %spec.select.i = call i64 @llvm.umin.i64(i64 %26, i64 136)
  %27 = getelementptr inbounds nuw i8, ptr %22, i64 104
  %28 = load ptr, ptr %27, align 8, !tbaa !25
  %29 = call ptr %28(ptr noundef nonnull %22, i64 noundef range(i64 0, 281470681677826) %21, i64 noundef %spec.select.i, i32 noundef 0) #6
  %.not26.i = icmp eq ptr %29, null
  br i1 %.not26.i, label %fmap_readn.exit.thread, label %fmap_readn.exit

fmap_readn.exit:                                  ; preds = %25
  call void @llvm.memcpy.p0.p0.i64(ptr nonnull align 1 %6, ptr nonnull align 1 %29, i64 %spec.select.i, i1 false)
  %.not28 = icmp ugt i64 %26, 135
  br i1 %.not28, label %31, label %fmap_readn.exit.thread

fmap_readn.exit.thread:                           ; preds = %25, %19, %fmap_readn.exit
  call void (ptr, ...) @cli_dbgmsg(ptr noundef nonnull @.str.4) #6
  %30 = call i32 @partition_intersection_list_free(ptr noundef nonnull %5) #6
  br label %.loopexit

31:                                               ; preds = %fmap_readn.exit
  %32 = load i32, ptr %16, align 1, !tbaa !34
  %33 = call i32 @llvm.bswap.i32(i32 %32)
  store i32 %33, ptr %16, align 1, !tbaa !34
  %34 = load i32, ptr %17, align 1, !tbaa !35
  %35 = call i32 @llvm.bswap.i32(i32 %34)
  store i32 %35, ptr %17, align 1, !tbaa !35
  %36 = and i32 %.02147, 3
  %37 = icmp eq i32 %36, 0
  %or.cond = and i1 %3, %37
  br i1 %or.cond, label %38, label %46

38:                                               ; preds = %31
  %bcmp = call i32 @bcmp(ptr noundef nonnull dereferenceable(13) %18, ptr noundef nonnull dereferenceable(13) @.str.19, i64 13)
  %.not29 = icmp eq i32 %bcmp, 0
  br i1 %.not29, label %44, label %39

39:                                               ; preds = %38
  %bcmp30 = call i32 @bcmp(ptr noundef nonnull dereferenceable(15) %18, ptr noundef nonnull dereferenceable(15) @.str.20, i64 15)
  %.not31 = icmp eq i32 %bcmp30, 0
  br i1 %.not31, label %44, label %40

40:                                               ; preds = %39
  %bcmp32 = call i32 @bcmp(ptr noundef nonnull dereferenceable(18) %18, ptr noundef nonnull dereferenceable(18) @.str.21, i64 18)
  %.not33 = icmp eq i32 %bcmp32, 0
  br i1 %.not33, label %44, label %41

41:                                               ; preds = %40
  %bcmp34 = call i32 @bcmp(ptr noundef nonnull dereferenceable(17) %18, ptr noundef nonnull dereferenceable(17) @.str.22, i64 17)
  %.not35 = icmp eq i32 %bcmp34, 0
  br i1 %.not35, label %44, label %42

42:                                               ; preds = %41
  %bcmp36 = call i32 @bcmp(ptr noundef nonnull dereferenceable(19) %18, ptr noundef nonnull dereferenceable(19) @.str.23, i64 19)
  %.not37 = icmp eq i32 %bcmp36, 0
  br i1 %.not37, label %44, label %43

43:                                               ; preds = %42
  %bcmp38 = call i32 @bcmp(ptr noundef nonnull dereferenceable(14) %18, ptr noundef nonnull dereferenceable(14) @.str.24, i64 14)
  %.not39 = icmp eq i32 %bcmp38, 0
  br i1 %.not39, label %44, label %46

44:                                               ; preds = %43, %42, %41, %40, %39, %38
  %45 = shl i32 %35, 2
  store i32 %45, ptr %17, align 1, !tbaa !35
  br label %46

46:                                               ; preds = %43, %44, %31
  %47 = phi i32 [ %35, %43 ], [ %45, %44 ], [ %35, %31 ]
  %48 = zext i32 %33 to i64
  %49 = zext i32 %47 to i64
  %50 = call i32 @partition_intersection_list_check(ptr noundef nonnull %5, ptr noundef nonnull %7, i64 noundef %48, i64 noundef %49) #6
  switch i32 %50, label %.loopexit [
    i32 0, label %54
    i32 1, label %51
  ]

51:                                               ; preds = %46
  %52 = load i32, ptr %7, align 4, !tbaa !63
  call void (ptr, ...) @cli_dbgmsg(ptr noundef nonnull @.str.29, i32 noundef %52, i32 noundef %.02147) #6
  %53 = call i32 @cli_append_potentially_unwanted(ptr noundef nonnull %0, ptr noundef nonnull @.str.30) #6
  %.not41 = icmp eq i32 %53, 0
  br i1 %.not41, label %54, label %.loopexit

54:                                               ; preds = %46, %51
  %55 = add i32 %.02147, 1
  %.not = icmp ugt i32 %55, %.
  br i1 %.not, label %.loopexit, label %19

.loopexit:                                        ; preds = %51, %54, %46, %4, %fmap_readn.exit.thread
  %.1 = phi i32 [ 26, %fmap_readn.exit.thread ], [ 0, %4 ], [ %53, %51 ], [ 0, %54 ], [ %50, %46 ]
  %56 = call i32 @partition_intersection_list_free(ptr noundef nonnull %5) #6
  call void @llvm.lifetime.end.p0(i64 4, ptr nonnull %7) #6
  call void @llvm.lifetime.end.p0(i64 136, ptr nonnull %6) #6
  call void @llvm.lifetime.end.p0(i64 16, ptr nonnull %5) #6
  ret i32 %.1
}